; Function Attrs: mustprogress uwtable
define internal void @"_ZNSt17_Function_handlerIFvRKN7rocksdb6StatusEEZNS0_6DBImpl20BackgroundCompactionEPbPNS0_10JobContextEPNS0_9LogBufferEPNS5_19PrepickedCompactionENS0_3Env8PriorityEE3$_1E9_M_invokeERKSt9_Any_dataS3_"(ptr noundef nonnull readonly align 8 captures(none) dereferenceable(16) %0, ptr noundef nonnull align 8 dereferenceable(16) %1) #4 align 2 {
  %3 = load ptr, ptr %0, align 8, !tbaa !2302
  %4 = load ptr, ptr %3, align 8, !tbaa !1514
  tail call void @_ZN7rocksdb10Compaction22ReleaseCompactionFilesERKNS_6StatusE(ptr noundef nonnull align 16 dereferenceable(4916) %4, ptr noundef nonnull align 8 dereferenceable(16) %1)
  %5 = getelementptr inbounds nuw i8, ptr %0, i64 8
  %6 = load ptr, ptr %5, align 8, !tbaa !2304
  store i8 1, ptr %6, align 1, !tbaa !46
  ret void
}